; Function Attrs: mustprogress uwtable
define void @_ZN8facebook4yoga4Node14setMeasureFuncEPF6YGSizePK6YGNodef13YGMeasureModefS6_E(ptr noundef nonnull align 8 dereferenceable(584) %0, ptr noundef %1) local_unnamed_addr #3 align 2 {
  %3 = icmp eq ptr %1, null
  br i1 %3, label %4, label %7

4:                                                ; preds = %2
  %5 = load i8, ptr %0, align 8
  %6 = and i8 %5, -17
  br label %15

7:                                                ; preds = %2
  %8 = getelementptr inbounds nuw i8, ptr %0, i64 536
  %9 = load ptr, ptr %8, align 8, !tbaa !93
  %10 = getelementptr inbounds nuw i8, ptr %0, i64 544
  %11 = load ptr, ptr %10, align 8, !tbaa !93
  %12 = icmp eq ptr %9, %11
  tail call void @_ZN8facebook4yoga19assertFatalWithNodeEPKNS0_4NodeEbPKc(ptr noundef nonnull %0, i1 noundef zeroext %12, ptr noundef nonnull @.str.2)
  %13 = load i8, ptr %0, align 8
  %14 = or i8 %13, 16
  br label %15

15:                                               ; preds = %7, %4
  %storemerge = phi i8 [ %14, %7 ], [ %6, %4 ]
  store i8 %storemerge, ptr %0, align 8
  %16 = getelementptr inbounds nuw i8, ptr %0, i64 16
  store ptr %1, ptr %16, align 8, !tbaa !80
  ret void
}